target datalayout = "e-m:e-p270:32:32-p271:32:32-p272:64:64-i64:64-i128:128-f80:128-n8:16:32:64-S128"
target triple = "x86_64-pc-linux-gnu"

%struct.grpc_arg_pointer_vtable = type { ptr, ptr, ptr }
%"class.grpc_core::ChannelArgs::Pointer" = type { ptr, ptr }
%"class.grpc_core::ChannelArgs" = type { %"class.grpc_core::AVL" }
%"class.grpc_core::AVL" = type { %"class.grpc_core::RefCountedPtr" }
%"class.grpc_core::RefCountedPtr" = type { ptr }
%"class.std::basic_string_view" = type { i64, ptr }
%"class.grpc_core::ChannelArgs::Value" = type { %"class.grpc_core::ChannelArgs::Pointer" }

@_ZN9grpc_core11ChannelArgs5Value11int_vtable_E = constant %struct.grpc_arg_pointer_vtable { ptr @"_ZN9grpc_core11ChannelArgs5Value3$_08__invokeEPv", ptr @"_ZN9grpc_core11ChannelArgs5Value3$_18__invokeEPv", ptr @"_ZN9grpc_core11ChannelArgs5Value3$_28__invokeEPvS3_" }, align 8
@_ZN9grpc_core11ChannelArgs5Value14string_vtable_E = constant %struct.grpc_arg_pointer_vtable { ptr @"_ZN9grpc_core11ChannelArgs5Value3$_38__invokeEPv", ptr @"_ZN9grpc_core11ChannelArgs5Value3$_48__invokeEPv", ptr @"_ZN9grpc_core11ChannelArgs5Value3$_58__invokeEPvS3_" }, align 8

; Function Attrs: mustprogress nounwind uwtable
define linkonce_odr noundef ptr @_ZNK9grpc_core11ChannelArgs7Pointer8c_vtableEv(ptr noundef nonnull align 8 dereferenceable(16) %0) #6 comdat align 2 {
  %2 = alloca ptr, align 8
  store ptr %0, ptr %2, align 8, !tbaa !7
  %3 = load ptr, ptr %2, align 8
  %4 = getelementptr inbounds nuw %"class.grpc_core::ChannelArgs::Pointer", ptr %3, i32 0, i32 1
  %5 = load ptr, ptr %4, align 8, !tbaa !13
  ret ptr %5
}

; Function Attrs: mustprogress nounwind uwtable
define linkonce_odr noundef ptr @_ZNK9grpc_core11ChannelArgs7Pointer9c_pointerEv(ptr noundef nonnull align 8 dereferenceable(16) %0) #6 comdat align 2 {
  %2 = alloca ptr, align 8
  store ptr %0, ptr %2, align 8, !tbaa !7
  %3 = load ptr, ptr %2, align 8
  %4 = getelementptr inbounds nuw %"class.grpc_core::ChannelArgs::Pointer", ptr %3, i32 0, i32 0
  %5 = load ptr, ptr %4, align 8, !tbaa !11
  ret ptr %5
}

; Function Attrs: mustprogress nounwind uwtable
define linkonce_odr noundef ptr @_ZNK9grpc_core11ChannelArgs5Value12GetIfPointerEv(ptr noundef nonnull align 8 dereferenceable(16) %0) #6 comdat align 2 {
  %2 = alloca ptr, align 8
  %3 = alloca ptr, align 8
  store ptr %0, ptr %3, align 8, !tbaa !29
  %4 = load ptr, ptr %3, align 8
  %5 = getelementptr inbounds nuw %"class.grpc_core::ChannelArgs::Value", ptr %4, i32 0, i32 0
  %6 = call noundef ptr @_ZNK9grpc_core11ChannelArgs7Pointer8c_vtableEv(ptr noundef nonnull align 8 dereferenceable(16) %5)
  %7 = icmp eq ptr %6, @_ZN9grpc_core11ChannelArgs5Value11int_vtable_E
  br i1 %7, label %8, label %9

8:                                                ; preds = %1
  store ptr null, ptr %2, align 8
  br label %16

9:                                                ; preds = %1
  %10 = getelementptr inbounds nuw %"class.grpc_core::ChannelArgs::Value", ptr %4, i32 0, i32 0
  %11 = call noundef ptr @_ZNK9grpc_core11ChannelArgs7Pointer8c_vtableEv(ptr noundef nonnull align 8 dereferenceable(16) %10)
  %12 = icmp eq ptr %11, @_ZN9grpc_core11ChannelArgs5Value14string_vtable_E
  br i1 %12, label %13, label %14

13:                                               ; preds = %9
  store ptr null, ptr %2, align 8
  br label %16

14:                                               ; preds = %9
  %15 = getelementptr inbounds nuw %"class.grpc_core::ChannelArgs::Value", ptr %4, i32 0, i32 0
  store ptr %15, ptr %2, align 8
  br label %16

16:                                               ; preds = %14, %13, %8
  %17 = load ptr, ptr %2, align 8
  ret ptr %17
}

; Function Attrs: mustprogress uwtable
define noundef ptr @_ZNK9grpc_core11ChannelArgs3GetESt17basic_string_viewIcSt11char_traitsIcEE(ptr noundef nonnull align 8 dereferenceable(8) %0, i64 %1, ptr %2) #5 align 2 {
  %4 = alloca %"class.std::basic_string_view", align 8
  %5 = alloca ptr, align 8
  %6 = getelementptr inbounds nuw { i64, ptr }, ptr %4, i32 0, i32 0
  store i64 %1, ptr %6, align 8
  %7 = getelementptr inbounds nuw { i64, ptr }, ptr %4, i32 0, i32 1
  store ptr %2, ptr %7, align 8
  store ptr %0, ptr %5, align 8, !tbaa !16
  %8 = load ptr, ptr %5, align 8
  %9 = getelementptr inbounds nuw %"class.grpc_core::ChannelArgs", ptr %8, i32 0, i32 0
  %10 = call noundef ptr @_ZNK9grpc_core3AVLINS_21RefCountedStringValueENS_11ChannelArgs5ValueEE6LookupISt17basic_string_viewIcSt11char_traitsIcEEEEPKS3_RKT_(ptr noundef nonnull align 8 dereferenceable(8) %9, ptr noundef nonnull align 8 dereferenceable(16) %4)
  ret ptr %10
}

; Function Attrs: mustprogress uwtable
define noundef ptr @_ZNK9grpc_core11ChannelArgs14GetVoidPointerESt17basic_string_viewIcSt11char_traitsIcEE(ptr noundef nonnull align 8 dereferenceable(8) %0, i64 %1, ptr %2) #5 align 2 {
  %4 = alloca ptr, align 8
  %5 = alloca %"class.std::basic_string_view", align 8
  %6 = alloca ptr, align 8
  %7 = alloca ptr, align 8
  %8 = alloca %"class.std::basic_string_view", align 8
  %9 = alloca i32, align 4
  %10 = alloca ptr, align 8
  %11 = getelementptr inbounds nuw { i64, ptr }, ptr %5, i32 0, i32 0
  store i64 %1, ptr %11, align 8
  %12 = getelementptr inbounds nuw { i64, ptr }, ptr %5, i32 0, i32 1
  store ptr %2, ptr %12, align 8
  store ptr %0, ptr %6, align 8, !tbaa !16
  %13 = load ptr, ptr %6, align 8
  call void @llvm.lifetime.start.p0(i64 8, ptr %7) #3
  call void @llvm.memcpy.p0.p0.i64(ptr align 8 %8, ptr align 8 %5, i64 16, i1 false), !tbaa.struct !22
  %14 = getelementptr inbounds nuw { i64, ptr }, ptr %8, i32 0, i32 0
  %15 = load i64, ptr %14, align 8
  %16 = getelementptr inbounds nuw { i64, ptr }, ptr %8, i32 0, i32 1
  %17 = load ptr, ptr %16, align 8
  %18 = call noundef ptr @_ZNK9grpc_core11ChannelArgs3GetESt17basic_string_viewIcSt11char_traitsIcEE(ptr noundef nonnull align 8 dereferenceable(8) %13, i64 %15, ptr %17)
  store ptr %18, ptr %7, align 8, !tbaa !29
  %19 = load ptr, ptr %7, align 8, !tbaa !29
  %20 = icmp eq ptr %19, null
  br i1 %20, label %21, label %22

21:                                               ; preds = %3
  store ptr null, ptr %4, align 8
  store i32 1, ptr %9, align 4
  br label %32

22:                                               ; preds = %3
  call void @llvm.lifetime.start.p0(i64 8, ptr %10) #3
  %23 = load ptr, ptr %7, align 8, !tbaa !29
  %24 = call noundef ptr @_ZNK9grpc_core11ChannelArgs5Value12GetIfPointerEv(ptr noundef nonnull align 8 dereferenceable(16) %23)
  store ptr %24, ptr %10, align 8, !tbaa !7
  %25 = load ptr, ptr %10, align 8, !tbaa !7
  %26 = icmp eq ptr %25, null
  br i1 %26, label %27, label %28

27:                                               ; preds = %22
  store ptr null, ptr %4, align 8
  store i32 1, ptr %9, align 4
  br label %31

28:                                               ; preds = %22
  %29 = load ptr, ptr %10, align 8, !tbaa !7
  %30 = call noundef ptr @_ZNK9grpc_core11ChannelArgs7Pointer9c_pointerEv(ptr noundef nonnull align 8 dereferenceable(16) %29)
  store ptr %30, ptr %4, align 8
  store i32 1, ptr %9, align 4
  br label %31

31:                                               ; preds = %28, %27
  call void @llvm.lifetime.end.p0(i64 8, ptr %10) #3
  br label %32

32:                                               ; preds = %31, %21
  call void @llvm.lifetime.end.p0(i64 8, ptr %7) #3
  %33 = load ptr, ptr %4, align 8
  ret ptr %33
}