; Function Attrs: mustprogress uwtable
define noundef ptr @_ZNK9grpc_core11ChannelArgs14GetVoidPointerESt17basic_string_viewIcSt11char_traitsIcEE(ptr noundef nonnull align 8 dereferenceable(8) %0, i64 %1, ptr %2) local_unnamed_addr #9 align 2 {
  %4 = alloca %"class.std::basic_string_view", align 8
  call void @llvm.lifetime.start.p0(i64 16, ptr nonnull %4)
  store i64 %1, ptr %4, align 8
  %5 = getelementptr inbounds nuw i8, ptr %4, i64 8
  store ptr %2, ptr %5, align 8
  %6 = call noundef ptr @_ZNK9grpc_core3AVLINS_21RefCountedStringValueENS_11ChannelArgs5ValueEE6LookupISt17basic_string_viewIcSt11char_traitsIcEEEEPKS3_RKT_(ptr noundef nonnull align 8 dereferenceable(8) %0, ptr noundef nonnull align 8 dereferenceable(16) %4)
  call void @llvm.lifetime.end.p0(i64 16, ptr nonnull %4)
  %7 = icmp eq ptr %6, null
  br i1 %7, label %16, label %8

8:                                                ; preds = %3
  %9 = getelementptr inbounds nuw i8, ptr %6, i64 8
  %10 = load ptr, ptr %9, align 8, !tbaa !18
  %11 = icmp eq ptr %10, @_ZN9grpc_core11ChannelArgs5Value11int_vtable_E
  %12 = icmp eq ptr %10, @_ZN9grpc_core11ChannelArgs5Value14string_vtable_E
  %13 = or i1 %11, %12
  br i1 %13, label %16, label %14

14:                                               ; preds = %8
  %15 = load ptr, ptr %6, align 8, !tbaa !14
  br label %16

16:                                               ; preds = %14, %8, %3
  %.0 = phi ptr [ null, %3 ], [ %15, %14 ], [ null, %8 ]
  ret ptr %.0
}